target datalayout = "e-m:e-p270:32:32-p271:32:32-p272:64:64-i64:64-i128:128-f80:128-n8:16:32:64-S128"
target triple = "x86_64-pc-linux-gnu"

%struct.Aig_Obj_t_ = type { %union.anon, ptr, ptr, i64, i32, i32, %union.anon.0 }
%union.anon = type { ptr }
%union.anon.0 = type { ptr }
%struct.Aig_Man_t_ = type { ptr, ptr, ptr, ptr, ptr, ptr, ptr, %struct.Aig_Obj_t_, i32, i32, i32, i32, i32, i32, [7 x i32], i32, ptr, i32, ptr, i32, ptr, i32, i32, i32, ptr, i32, i32, i32, i32, i32, ptr, ptr, i32, ptr, ptr, i32, ptr, ptr, i32, i32, i32, ptr, ptr, ptr, ptr, ptr, ptr, ptr, ptr, ptr, ptr, ptr, ptr, ptr, ptr, i32, ptr, ptr, ptr, ptr, i32, i64, i64, i64, ptr, ptr }
%struct.Hop_Man_t_ = type { ptr, ptr, ptr, ptr, %struct.Hop_Obj_t_, [6 x i32], i32, i32, ptr, i32, ptr, i32, i32, i32, ptr, ptr, ptr, i64, i64 }
%struct.Hop_Obj_t_ = type { %union.anon.1, %union.anon.2, ptr, ptr, i32, i32 }
%union.anon.1 = type { ptr }
%union.anon.2 = type { ptr }
%struct.Vec_Ptr_t_ = type { i32, i32, ptr }
%struct.Abc_Obj_t_ = type { ptr, ptr, i32, i32, %struct.Vec_Int_t_, %struct.Vec_Int_t_, %union.anon.3, %union.anon.4 }
%struct.Vec_Int_t_ = type { i32, i32, ptr }
%union.anon.3 = type { ptr }
%union.anon.4 = type { ptr }
%struct.Abc_Ntk_t_ = type { i32, i32, ptr, ptr, ptr, ptr, ptr, ptr, ptr, ptr, ptr, ptr, ptr, [11 x i32], i32, i32, i32, i32, ptr, i32, ptr, ptr, i32, i32, i32, double, i32, %struct.Vec_Int_t_, ptr, ptr, ptr, ptr, ptr, float, i32, ptr, ptr, ptr, ptr, ptr, ptr, ptr, ptr, ptr, ptr, ptr, ptr, ptr, ptr, ptr, ptr, ptr, ptr, ptr, ptr, ptr }

; Function Attrs: nounwind uwtable
define internal ptr @Vec_PtrEntry(ptr noundef %0, i32 noundef %1) #0 {
  %3 = alloca ptr, align 8
  %4 = alloca i32, align 4
  store ptr %0, ptr %3, align 8
  store i32 %1, ptr %4, align 4
  %5 = load ptr, ptr %3, align 8
  %6 = getelementptr inbounds %struct.Vec_Ptr_t_, ptr %5, i32 0, i32 2
  %7 = load ptr, ptr %6, align 8
  %8 = load i32, ptr %4, align 4
  %9 = sext i32 %8 to i64
  %10 = getelementptr inbounds ptr, ptr %7, i64 %9
  %11 = load ptr, ptr %10, align 8
  ret ptr %11
}

; Function Attrs: nounwind uwtable
define internal ptr @Hop_ManPi(ptr noundef %0, i32 noundef %1) #0 {
  %3 = alloca ptr, align 8
  %4 = alloca i32, align 4
  store ptr %0, ptr %3, align 8
  store i32 %1, ptr %4, align 4
  %5 = load ptr, ptr %3, align 8
  %6 = getelementptr inbounds %struct.Hop_Man_t_, ptr %5, i32 0, i32 0
  %7 = load ptr, ptr %6, align 8
  %8 = load i32, ptr %4, align 4
  %9 = call ptr @Vec_PtrEntry(ptr noundef %7, i32 noundef %8)
  ret ptr %9
}

; Function Attrs: nounwind uwtable
define internal ptr @Abc_ObjFanin(ptr noundef %0, i32 noundef %1) #0 {
  %3 = alloca ptr, align 8
  %4 = alloca i32, align 4
  store ptr %0, ptr %3, align 8
  store i32 %1, ptr %4, align 4
  %5 = load ptr, ptr %3, align 8
  %6 = getelementptr inbounds %struct.Abc_Obj_t_, ptr %5, i32 0, i32 0
  %7 = load ptr, ptr %6, align 8
  %8 = getelementptr inbounds %struct.Abc_Ntk_t_, ptr %7, i32 0, i32 5
  %9 = load ptr, ptr %8, align 8
  %10 = getelementptr inbounds %struct.Vec_Ptr_t_, ptr %9, i32 0, i32 2
  %11 = load ptr, ptr %10, align 8
  %12 = load ptr, ptr %3, align 8
  %13 = getelementptr inbounds %struct.Abc_Obj_t_, ptr %12, i32 0, i32 4
  %14 = getelementptr inbounds %struct.Vec_Int_t_, ptr %13, i32 0, i32 2
  %15 = load ptr, ptr %14, align 8
  %16 = load i32, ptr %4, align 4
  %17 = sext i32 %16 to i64
  %18 = getelementptr inbounds i32, ptr %15, i64 %17
  %19 = load i32, ptr %18, align 4
  %20 = sext i32 %19 to i64
  %21 = getelementptr inbounds ptr, ptr %11, i64 %20
  %22 = load ptr, ptr %21, align 8
  ret ptr %22
}

; Function Attrs: nounwind uwtable
define internal i32 @Abc_ObjFaninNum(ptr noundef %0) #0 {
  %2 = alloca ptr, align 8
  store ptr %0, ptr %2, align 8
  %3 = load ptr, ptr %2, align 8
  %4 = getelementptr inbounds %struct.Abc_Obj_t_, ptr %3, i32 0, i32 4
  %5 = getelementptr inbounds %struct.Vec_Int_t_, ptr %4, i32 0, i32 1
  %6 = load i32, ptr %5, align 4
  ret i32 %6
}

; Function Attrs: nounwind uwtable
define internal ptr @Aig_NotCond(ptr noundef %0, i32 noundef %1) #0 {
  %3 = alloca ptr, align 8
  %4 = alloca i32, align 4
  store ptr %0, ptr %3, align 8
  store i32 %1, ptr %4, align 4
  %5 = load ptr, ptr %3, align 8
  %6 = ptrtoint ptr %5 to i64
  %7 = load i32, ptr %4, align 4
  %8 = sext i32 %7 to i64
  %9 = xor i64 %6, %8
  %10 = inttoptr i64 %9 to ptr
  ret ptr %10
}

; Function Attrs: nounwind uwtable
define internal i32 @Hop_IsComplement(ptr noundef %0) #0 {
  %2 = alloca ptr, align 8
  store ptr %0, ptr %2, align 8
  %3 = load ptr, ptr %2, align 8
  %4 = ptrtoint ptr %3 to i64
  %5 = and i64 %4, 1
  %6 = trunc i64 %5 to i32
  ret i32 %6
}

; Function Attrs: nounwind uwtable
define internal ptr @Aig_ManConst1(ptr noundef %0) #0 {
  %2 = alloca ptr, align 8
  store ptr %0, ptr %2, align 8
  %3 = load ptr, ptr %2, align 8
  %4 = getelementptr inbounds %struct.Aig_Man_t_, ptr %3, i32 0, i32 6
  %5 = load ptr, ptr %4, align 8
  ret ptr %5
}

; Function Attrs: nounwind uwtable
define internal i32 @Hop_ObjIsConst1(ptr noundef %0) #0 {
  %2 = alloca ptr, align 8
  store ptr %0, ptr %2, align 8
  %3 = load ptr, ptr %2, align 8
  %4 = getelementptr inbounds %struct.Hop_Obj_t_, ptr %3, i32 0, i32 4
  %5 = load i32, ptr %4, align 8
  %6 = and i32 %5, 7
  %7 = icmp eq i32 %6, 1
  %8 = zext i1 %7 to i32
  ret i32 %8
}

; Function Attrs: nounwind uwtable
define internal ptr @Hop_Regular(ptr noundef %0) #0 {
  %2 = alloca ptr, align 8
  store ptr %0, ptr %2, align 8
  %3 = load ptr, ptr %2, align 8
  %4 = ptrtoint ptr %3 to i64
  %5 = and i64 %4, -2
  %6 = inttoptr i64 %5 to ptr
  ret ptr %6
}

; Function Attrs: nounwind uwtable
define void @Abc_MfsConvertHopToAig(ptr noundef %0, ptr noundef %1) #0 {
  %3 = alloca ptr, align 8
  %4 = alloca ptr, align 8
  %5 = alloca ptr, align 8
  %6 = alloca ptr, align 8
  %7 = alloca ptr, align 8
  %8 = alloca i32, align 4
  store ptr %0, ptr %3, align 8
  store ptr %1, ptr %4, align 8
  %9 = load ptr, ptr %3, align 8
  %10 = getelementptr inbounds %struct.Abc_Obj_t_, ptr %9, i32 0, i32 0
  %11 = load ptr, ptr %10, align 8
  %12 = getelementptr inbounds %struct.Abc_Ntk_t_, ptr %11, i32 0, i32 30
  %13 = load ptr, ptr %12, align 8
  store ptr %13, ptr %5, align 8
  %14 = load ptr, ptr %3, align 8
  %15 = getelementptr inbounds %struct.Abc_Obj_t_, ptr %14, i32 0, i32 6
  %16 = load ptr, ptr %15, align 8
  store ptr %16, ptr %6, align 8
  %17 = load ptr, ptr %6, align 8
  %18 = call ptr @Hop_Regular(ptr noundef %17)
  %19 = call i32 @Hop_ObjIsConst1(ptr noundef %18)
  %20 = icmp ne i32 %19, 0
  br i1 %20, label %21, label %34

21:                                               ; preds = %2
  %22 = load ptr, ptr %4, align 8
  %23 = call ptr @Aig_ManConst1(ptr noundef %22)
  %24 = load ptr, ptr %6, align 8
  %25 = call i32 @Hop_IsComplement(ptr noundef %24)
  %26 = call ptr @Aig_NotCond(ptr noundef %23, i32 noundef %25)
  %27 = load ptr, ptr %3, align 8
  %28 = getelementptr inbounds %struct.Abc_Obj_t_, ptr %27, i32 0, i32 7
  store ptr %26, ptr %28, align 8
  %29 = load ptr, ptr %3, align 8
  %30 = getelementptr inbounds %struct.Abc_Obj_t_, ptr %29, i32 0, i32 7
  %31 = load ptr, ptr %30, align 8
  %32 = load ptr, ptr %3, align 8
  %33 = getelementptr inbounds %struct.Abc_Obj_t_, ptr %32, i32 0, i32 1
  store ptr %31, ptr %33, align 8
  br label %109

34:                                               ; preds = %2
  store i32 0, ptr %8, align 4
  br label %35

35:                                               ; preds = %54, %34
  %36 = load i32, ptr %8, align 4
  %37 = load ptr, ptr %3, align 8
  %38 = call i32 @Abc_ObjFaninNum(ptr noundef %37)
  %39 = icmp slt i32 %36, %38
  br i1 %39, label %40, label %44

40:                                               ; preds = %35
  %41 = load ptr, ptr %3, align 8
  %42 = load i32, ptr %8, align 4
  %43 = call ptr @Abc_ObjFanin(ptr noundef %41, i32 noundef %42)
  store ptr %43, ptr %7, align 8
  br label %44

44:                                               ; preds = %40, %35
  %45 = phi i1 [ false, %35 ], [ true, %40 ]
  br i1 %45, label %46, label %57

46:                                               ; preds = %44
  %47 = load ptr, ptr %7, align 8
  %48 = getelementptr inbounds %struct.Abc_Obj_t_, ptr %47, i32 0, i32 7
  %49 = load ptr, ptr %48, align 8
  %50 = load ptr, ptr %5, align 8
  %51 = load i32, ptr %8, align 4
  %52 = call ptr @Hop_ManPi(ptr noundef %50, i32 noundef %51)
  %53 = getelementptr inbounds %struct.Hop_Obj_t_, ptr %52, i32 0, i32 0
  store ptr %49, ptr %53, align 8
  br label %54

54:                                               ; preds = %46
  %55 = load i32, ptr %8, align 4
  %56 = add nsw i32 %55, 1
  store i32 %56, ptr %8, align 4
  br label %35, !llvm.loop !6

57:                                               ; preds = %44
  %58 = load ptr, ptr %6, align 8
  %59 = call ptr @Hop_Regular(ptr noundef %58)
  %60 = load ptr, ptr %4, align 8
  call void @Abc_MfsConvertHopToAig_rec(ptr noundef %59, ptr noundef %60)
  %61 = load ptr, ptr %6, align 8
  %62 = call ptr @Hop_Regular(ptr noundef %61)
  %63 = getelementptr inbounds %struct.Hop_Obj_t_, ptr %62, i32 0, i32 0
  %64 = load ptr, ptr %63, align 8
  %65 = load ptr, ptr %6, align 8
  %66 = call i32 @Hop_IsComplement(ptr noundef %65)
  %67 = call ptr @Aig_NotCond(ptr noundef %64, i32 noundef %66)
  %68 = load ptr, ptr %3, align 8
  %69 = getelementptr inbounds %struct.Abc_Obj_t_, ptr %68, i32 0, i32 7
  store ptr %67, ptr %69, align 8
  %70 = load ptr, ptr %6, align 8
  %71 = call ptr @Hop_Regular(ptr noundef %70)
  call void @Hop_ConeUnmark_rec(ptr noundef %71)
  store i32 0, ptr %8, align 4
  br label %72

72:                                               ; preds = %91, %57
  %73 = load i32, ptr %8, align 4
  %74 = load ptr, ptr %3, align 8
  %75 = call i32 @Abc_ObjFaninNum(ptr noundef %74)
  %76 = icmp slt i32 %73, %75
  br i1 %76, label %77, label %81

77:                                               ; preds = %72
  %78 = load ptr, ptr %3, align 8
  %79 = load i32, ptr %8, align 4
  %80 = call ptr @Abc_ObjFanin(ptr noundef %78, i32 noundef %79)
  store ptr %80, ptr %7, align 8
  br label %81

81:                                               ; preds = %77, %72
  %82 = phi i1 [ false, %72 ], [ true, %77 ]
  br i1 %82, label %83, label %94

83:                                               ; preds = %81
  %84 = load ptr, ptr %7, align 8
  %85 = getelementptr inbounds %struct.Abc_Obj_t_, ptr %84, i32 0, i32 1
  %86 = load ptr, ptr %85, align 8
  %87 = load ptr, ptr %5, align 8
  %88 = load i32, ptr %8, align 4
  %89 = call ptr @Hop_ManPi(ptr noundef %87, i32 noundef %88)
  %90 = getelementptr inbounds %struct.Hop_Obj_t_, ptr %89, i32 0, i32 0
  store ptr %86, ptr %90, align 8
  br label %91

91:                                               ; preds = %83
  %92 = load i32, ptr %8, align 4
  %93 = add nsw i32 %92, 1
  store i32 %93, ptr %8, align 4
  br label %72, !llvm.loop !7

94:                                               ; preds = %81
  %95 = load ptr, ptr %6, align 8
  %96 = call ptr @Hop_Regular(ptr noundef %95)
  %97 = load ptr, ptr %4, align 8
  call void @Abc_MfsConvertHopToAig_rec(ptr noundef %96, ptr noundef %97)
  %98 = load ptr, ptr %6, align 8
  %99 = call ptr @Hop_Regular(ptr noundef %98)
  %100 = getelementptr inbounds %struct.Hop_Obj_t_, ptr %99, i32 0, i32 0
  %101 = load ptr, ptr %100, align 8
  %102 = load ptr, ptr %6, align 8
  %103 = call i32 @Hop_IsComplement(ptr noundef %102)
  %104 = call ptr @Aig_NotCond(ptr noundef %101, i32 noundef %103)
  %105 = load ptr, ptr %3, align 8
  %106 = getelementptr inbounds %struct.Abc_Obj_t_, ptr %105, i32 0, i32 1
  store ptr %104, ptr %106, align 8
  %107 = load ptr, ptr %6, align 8
  %108 = call ptr @Hop_Regular(ptr noundef %107)
  call void @Hop_ConeUnmark_rec(ptr noundef %108)
  br label %109

109:                                              ; preds = %94, %21
  ret void
}