; Function Attrs: nounwind uwtable
define void @Abc_MfsConvertHopToAig(ptr noundef captures(none) %0, ptr noundef %1) local_unnamed_addr #0 {
  %3 = load ptr, ptr %0, align 8
  %4 = getelementptr inbounds nuw i8, ptr %3, i64 256
  %5 = load ptr, ptr %4, align 8
  %6 = getelementptr inbounds nuw i8, ptr %0, i64 56
  %7 = load ptr, ptr %6, align 8
  %8 = ptrtoint ptr %7 to i64
  %9 = and i64 %8, -2
  %10 = inttoptr i64 %9 to ptr
  %11 = getelementptr i8, ptr %10, i64 32
  %.val = load i32, ptr %11, align 8
  %12 = and i32 %.val, 7
  %.not = icmp eq i32 %12, 1
  br i1 %.not, label %16, label %.preheader

.preheader:                                       ; preds = %2
  %13 = getelementptr i8, ptr %0, i64 28
  %.val3846 = load i32, ptr %13, align 4
  %14 = icmp sgt i32 %.val3846, 0
  br i1 %14, label %.lr.ph, label %.critedge

.lr.ph:                                           ; preds = %.preheader
  %15 = getelementptr i8, ptr %0, i64 32
  br label %24

16:                                               ; preds = %2
  %17 = getelementptr i8, ptr %1, i64 48
  %.val37 = load ptr, ptr %17, align 8
  %18 = and i64 %8, 1
  %19 = ptrtoint ptr %.val37 to i64
  %20 = xor i64 %18, %19
  %21 = inttoptr i64 %20 to ptr
  %22 = getelementptr inbounds nuw i8, ptr %0, i64 64
  store ptr %21, ptr %22, align 8
  %23 = getelementptr inbounds nuw i8, ptr %0, i64 8
  store ptr %21, ptr %23, align 8
  br label %67

24:                                               ; preds = %.lr.ph, %24
  %indvars.iv = phi i64 [ 0, %.lr.ph ], [ %indvars.iv.next, %24 ]
  %.val40 = load ptr, ptr %0, align 8
  %.val41 = load ptr, ptr %15, align 8
  %25 = getelementptr i8, ptr %.val40, i64 32
  %.val40.val = load ptr, ptr %25, align 8
  %26 = getelementptr i8, ptr %.val40.val, i64 8
  %.val40.val.val = load ptr, ptr %26, align 8
  %27 = getelementptr inbounds nuw i32, ptr %.val41, i64 %indvars.iv
  %28 = load i32, ptr %27, align 4
  %29 = sext i32 %28 to i64
  %30 = getelementptr inbounds ptr, ptr %.val40.val.val, i64 %29
  %31 = load ptr, ptr %30, align 8
  %32 = getelementptr inbounds nuw i8, ptr %31, i64 64
  %33 = load ptr, ptr %32, align 8
  %.val44 = load ptr, ptr %5, align 8
  %34 = getelementptr i8, ptr %.val44, i64 8
  %.val44.val = load ptr, ptr %34, align 8
  %35 = getelementptr inbounds nuw ptr, ptr %.val44.val, i64 %indvars.iv
  %36 = load ptr, ptr %35, align 8
  store ptr %33, ptr %36, align 8
  %indvars.iv.next = add nuw nsw i64 %indvars.iv, 1
  %.val38 = load i32, ptr %13, align 4
  %37 = sext i32 %.val38 to i64
  %38 = icmp slt i64 %indvars.iv.next, %37
  br i1 %38, label %24, label %.critedge, !llvm.loop !6

.critedge:                                        ; preds = %24, %.preheader
  tail call void @Abc_MfsConvertHopToAig_rec(ptr noundef %10, ptr noundef %1)
  %39 = load ptr, ptr %10, align 8
  %40 = and i64 %8, 1
  %41 = ptrtoint ptr %39 to i64
  %42 = xor i64 %40, %41
  %43 = inttoptr i64 %42 to ptr
  %44 = getelementptr inbounds nuw i8, ptr %0, i64 64
  store ptr %43, ptr %44, align 8
  tail call void @Hop_ConeUnmark_rec(ptr noundef nonnull %10) #3
  %.val3948 = load i32, ptr %13, align 4
  %45 = icmp sgt i32 %.val3948, 0
  br i1 %45, label %.lr.ph50, label %.critedge2

.lr.ph50:                                         ; preds = %.critedge
  %46 = getelementptr i8, ptr %0, i64 32
  br label %47

47:                                               ; preds = %.lr.ph50, %47
  %indvars.iv52 = phi i64 [ 0, %.lr.ph50 ], [ %indvars.iv.next53, %47 ]
  %.val42 = load ptr, ptr %0, align 8
  %.val43 = load ptr, ptr %46, align 8
  %48 = getelementptr i8, ptr %.val42, i64 32
  %.val42.val = load ptr, ptr %48, align 8
  %49 = getelementptr i8, ptr %.val42.val, i64 8
  %.val42.val.val = load ptr, ptr %49, align 8
  %50 = getelementptr inbounds nuw i32, ptr %.val43, i64 %indvars.iv52
  %51 = load i32, ptr %50, align 4
  %52 = sext i32 %51 to i64
  %53 = getelementptr inbounds ptr, ptr %.val42.val.val, i64 %52
  %54 = load ptr, ptr %53, align 8
  %55 = getelementptr inbounds nuw i8, ptr %54, i64 8
  %56 = load ptr, ptr %55, align 8
  %.val45 = load ptr, ptr %5, align 8
  %57 = getelementptr i8, ptr %.val45, i64 8
  %.val45.val = load ptr, ptr %57, align 8
  %58 = getelementptr inbounds nuw ptr, ptr %.val45.val, i64 %indvars.iv52
  %59 = load ptr, ptr %58, align 8
  store ptr %56, ptr %59, align 8
  %indvars.iv.next53 = add nuw nsw i64 %indvars.iv52, 1
  %.val39 = load i32, ptr %13, align 4
  %60 = sext i32 %.val39 to i64
  %61 = icmp slt i64 %indvars.iv.next53, %60
  br i1 %61, label %47, label %.critedge2, !llvm.loop !7

.critedge2:                                       ; preds = %47, %.critedge
  tail call void @Abc_MfsConvertHopToAig_rec(ptr noundef nonnull %10, ptr noundef %1)
  %62 = load ptr, ptr %10, align 8
  %63 = ptrtoint ptr %62 to i64
  %64 = xor i64 %40, %63
  %65 = inttoptr i64 %64 to ptr
  %66 = getelementptr inbounds nuw i8, ptr %0, i64 8
  store ptr %65, ptr %66, align 8
  tail call void @Hop_ConeUnmark_rec(ptr noundef nonnull %10) #3
  br label %67

67:                                               ; preds = %.critedge2, %16
  ret void
}